---
triple:          'arm64-apple-darwin'
binary-path:     '/Users/sunnysaldana/projects/GC/02Pyramid/main'
relocations:
  - { offsetInCU: 0x41E1, offset: 0x41E1, size: 0x8, addend: 0x0, symName: __ZNSt3__122__make_exception_guardB8ue170006INS_6vectorI6VertexNS_9allocatorIS2_EEE16__destroy_vectorEEENS_28__exception_guard_exceptionsIT_EES8_, symObjAddr: 0x694, symBinAddr: 0x1000045B4, symSize: 0x40 }
  - { offsetInCU: 0x4216, offset: 0x4216, size: 0x8, addend: 0x0, symName: __ZNSt3__119__allocate_at_leastB8ue170006INS_9allocatorI6VertexEEEENS_19__allocation_resultINS_16allocator_traitsIT_E7pointerEEERS6_m, symObjAddr: 0xAA4, symBinAddr: 0x1000049C4, symSize: 0x40 }
  - { offsetInCU: 0x4259, offset: 0x4259, size: 0x8, addend: 0x0, symName: __ZNSt3__13minB8ue170006ImEERKT_S3_S3_, symObjAddr: 0xBFC, symBinAddr: 0x100004B1C, symSize: 0x2C }
  - { offsetInCU: 0x449D, offset: 0x449D, size: 0x8, addend: 0x0, symName: __ZNSt3__13minB8ue170006ImNS_6__lessIvvEEEERKT_S5_S5_T0_, symObjAddr: 0xC94, symBinAddr: 0x100004BB4, symSize: 0x54 }
  - { offsetInCU: 0x453C, offset: 0x453C, size: 0x8, addend: 0x0, symName: __ZNSt3__120__throw_length_errorB8ue170006EPKc, symObjAddr: 0xD74, symBinAddr: 0x100004C94, symSize: 0x64 }
  - { offsetInCU: 0x4566, offset: 0x4566, size: 0x8, addend: 0x0, symName: __ZNSt3__117__libcpp_allocateB8ue170006Emm, symObjAddr: 0xEE8, symBinAddr: 0x100004E08, symSize: 0x28 }
  - { offsetInCU: 0x45A3, offset: 0x45A3, size: 0x8, addend: 0x0, symName: __ZNSt3__121__libcpp_operator_newB8ue170006IJmEEEPvDpT_, symObjAddr: 0xF10, symBinAddr: 0x100004E30, symSize: 0x24 }
  - { offsetInCU: 0x45DC, offset: 0x45DC, size: 0x8, addend: 0x0, symName: __ZNSt3__112__to_addressB8ue170006I6VertexEEPT_S3_, symObjAddr: 0x102C, symBinAddr: 0x100004F4C, symSize: 0x14 }
  - { offsetInCU: 0x4611, offset: 0x4611, size: 0x8, addend: 0x0, symName: __ZNSt3__130__uninitialized_allocator_copyB8ue170006INS_9allocatorI6VertexEEPKS2_S5_PS2_EET2_RT_T0_T1_S7_, symObjAddr: 0x10DC, symBinAddr: 0x100004FFC, symSize: 0x80 }
  - { offsetInCU: 0x46AE, offset: 0x46AE, size: 0x8, addend: 0x0, symName: __ZNSt3__114__unwrap_rangeB8ue170006IPK6VertexS3_EENS_4pairIT0_S5_EET_S7_, symObjAddr: 0x11D4, symBinAddr: 0x1000050F4, symSize: 0x60 }
  - { offsetInCU: 0x46FA, offset: 0x46FA, size: 0x8, addend: 0x0, symName: __ZNSt3__135__uninitialized_allocator_copy_implB8ue170006INS_9allocatorI6VertexEEKS2_S2_S2_LPv0EEEPT2_RT_PT0_SB_S7_, symObjAddr: 0x1234, symBinAddr: 0x100005154, symSize: 0x38 }
  - { offsetInCU: 0x477B, offset: 0x477B, size: 0x8, addend: 0x0, symName: __ZNSt3__113__unwrap_iterB8ue170006IP6VertexNS_18__unwrap_iter_implIS2_Lb1EEELi0EEEDTclsrT0_8__unwrapclsr3stdE7declvalIT_EEEES6_, symObjAddr: 0x126C, symBinAddr: 0x10000518C, symSize: 0x24 }
  - { offsetInCU: 0x47BF, offset: 0x47BF, size: 0x8, addend: 0x0, symName: __ZNSt3__113__rewrap_iterB8ue170006IP6VertexS2_NS_18__unwrap_iter_implIS2_Lb1EEEEET_S5_T0_, symObjAddr: 0x1290, symBinAddr: 0x1000051B0, symSize: 0x3C }
  - { offsetInCU: 0x4814, offset: 0x4814, size: 0x8, addend: 0x0, symName: __ZNSt3__19make_pairB8ue170006IPK6VertexS3_EENS_4pairINS_18__unwrap_ref_decayIT_E4typeENS5_IT0_E4typeEEEOS6_OS9_, symObjAddr: 0x12CC, symBinAddr: 0x1000051EC, symSize: 0x38 }
  - { offsetInCU: 0x4863, offset: 0x4863, size: 0x8, addend: 0x0, symName: __ZNSt3__113__unwrap_iterB8ue170006IPK6VertexNS_18__unwrap_iter_implIS3_Lb1EEELi0EEEDTclsrT0_8__unwrapclsr3stdE7declvalIT_EEEES7_, symObjAddr: 0x1304, symBinAddr: 0x100005224, symSize: 0x24 }
  - { offsetInCU: 0x49CE, offset: 0x49CE, size: 0x8, addend: 0x0, symName: __ZNSt3__112__to_addressB8ue170006IK6VertexEEPT_S4_, symObjAddr: 0x13BC, symBinAddr: 0x1000052DC, symSize: 0x14 }
  - { offsetInCU: 0x4A03, offset: 0x4A03, size: 0x8, addend: 0x0, symName: __ZNSt3__14copyB8ue170006IPK6VertexPS1_EET0_T_S6_S5_, symObjAddr: 0x13D0, symBinAddr: 0x1000052F0, symSize: 0x40 }
  - { offsetInCU: 0x4A5D, offset: 0x4A5D, size: 0x8, addend: 0x0, symName: __ZNSt3__16__copyB8ue170006INS_17_ClassicAlgPolicyEPK6VertexS4_PS2_EENS_4pairIT0_T2_EES7_T1_S8_, symObjAddr: 0x1410, symBinAddr: 0x100005330, symSize: 0x44 }
  - { offsetInCU: 0x4AC9, offset: 0x4AC9, size: 0x8, addend: 0x0, symName: __ZNSt3__123__dispatch_copy_or_moveB8ue170006INS_17_ClassicAlgPolicyENS_11__copy_loopIS1_EENS_14__copy_trivialEPK6VertexS7_PS5_EENS_4pairIT2_T4_EESA_T3_SB_, symObjAddr: 0x1454, symBinAddr: 0x100005374, symSize: 0x44 }
  - { offsetInCU: 0x4B47, offset: 0x4B47, size: 0x8, addend: 0x0, symName: __ZNSt3__121__unwrap_and_dispatchB8ue170006INS_10__overloadINS_11__copy_loopINS_17_ClassicAlgPolicyEEENS_14__copy_trivialEEEPK6VertexS9_PS7_Li0EEENS_4pairIT0_T2_EESC_T1_SD_, symObjAddr: 0x1498, symBinAddr: 0x1000053B8, symSize: 0xB4 }
  - { offsetInCU: 0x4D1E, offset: 0x4D1E, size: 0x8, addend: 0x0, symName: __ZNSt3__19make_pairB8ue170006IPK6VertexPS1_EENS_4pairINS_18__unwrap_ref_decayIT_E4typeENS6_IT0_E4typeEEEOS7_OSA_, symObjAddr: 0x1594, symBinAddr: 0x1000054B4, symSize: 0x38 }
  - { offsetInCU: 0x4D6D, offset: 0x4D6D, size: 0x8, addend: 0x0, symName: __ZNSt3__114__rewrap_rangeB8ue170006IPK6VertexS3_EET_S4_T0_, symObjAddr: 0x15CC, symBinAddr: 0x1000054EC, symSize: 0x2C }
  - { offsetInCU: 0x4DB9, offset: 0x4DB9, size: 0x8, addend: 0x0, symName: __ZNSt3__119__copy_trivial_implB8ue170006IK6VertexS1_EENS_4pairIPT_PT0_EES5_S5_S7_, symObjAddr: 0x15F8, symBinAddr: 0x100005518, symSize: 0x88 }
  - { offsetInCU: 0x4E21, offset: 0x4E21, size: 0x8, addend: 0x0, symName: __ZNSt3__119__constexpr_memmoveB8ue170006I6VertexKS1_Li0EEEPT_S4_PT0_NS_15__element_countE, symObjAddr: 0x1680, symBinAddr: 0x1000055A0, symSize: 0x68 }
  - { offsetInCU: 0x4E8F, offset: 0x4E8F, size: 0x8, addend: 0x0, symName: __ZNSt3__19make_pairB8ue170006IRPK6VertexPS1_EENS_4pairINS_18__unwrap_ref_decayIT_E4typeENS7_IT0_E4typeEEEOS8_OSB_, symObjAddr: 0x16E8, symBinAddr: 0x100005608, symSize: 0x38 }
  - { offsetInCU: 0x4EDE, offset: 0x4EDE, size: 0x8, addend: 0x0, symName: __ZNSt3__113__rewrap_iterB8ue170006IPK6VertexS3_NS_18__unwrap_iter_implIS3_Lb1EEEEET_S6_T0_, symObjAddr: 0x1800, symBinAddr: 0x100005720, symSize: 0x3C }
  - { offsetInCU: 0x4F86, offset: 0x4F86, size: 0x8, addend: 0x0, symName: __ZNSt3__119__libcpp_deallocateB8ue170006EPvmm, symObjAddr: 0x1C78, symBinAddr: 0x100005B98, symSize: 0x30 }
  - { offsetInCU: 0x4FCE, offset: 0x4FCE, size: 0x8, addend: 0x0, symName: __ZNSt3__127__do_deallocate_handle_sizeB8ue170006IJEEEvPvmDpT_, symObjAddr: 0x1CA8, symBinAddr: 0x100005BC8, symSize: 0x28 }
  - { offsetInCU: 0x500C, offset: 0x500C, size: 0x8, addend: 0x0, symName: __ZNSt3__124__libcpp_operator_deleteB8ue170006IJPvEEEvDpT_, symObjAddr: 0x1CD0, symBinAddr: 0x100005BF0, symSize: 0x24 }
  - { offsetInCU: 0x534F, offset: 0x534F, size: 0x8, addend: 0x0, symName: __ZSt28__throw_bad_array_new_lengthB8ue170006v, symObjAddr: 0xEB4, symBinAddr: 0x100004DD4, symSize: 0x34 }
  - { offsetInCU: 0x7983, offset: 0x7983, size: 0x8, addend: 0x0, symName: _main, symObjAddr: 0x0, symBinAddr: 0x100003F20, symSize: 0x478 }
  - { offsetInCU: 0x7A33, offset: 0x7A33, size: 0x8, addend: 0x0, symName: __ZNSt3__16vectorI6VertexNS_9allocatorIS1_EEEC1B8ue170006ESt16initializer_listIS1_E, symObjAddr: 0x478, symBinAddr: 0x100004398, symSize: 0x3C }
  - { offsetInCU: 0x7A6C, offset: 0x7A6C, size: 0x8, addend: 0x0, symName: __ZNSt3__16vectorI6VertexNS_9allocatorIS1_EEED1B8ue170006Ev, symObjAddr: 0x4B4, symBinAddr: 0x1000043D4, symSize: 0x2C }
  - { offsetInCU: 0x7AE0, offset: 0x7AE0, size: 0x8, addend: 0x0, symName: __ZN4FaceD1Ev, symObjAddr: 0x4E0, symBinAddr: 0x100004400, symSize: 0x2C }
  - { offsetInCU: 0x7B0A, offset: 0x7B0A, size: 0x8, addend: 0x0, symName: __ZN4FaceD2Ev, symObjAddr: 0x50C, symBinAddr: 0x10000442C, symSize: 0x2C }
  - { offsetInCU: 0x7B34, offset: 0x7B34, size: 0x8, addend: 0x0, symName: __ZNSt3__16vectorI6VertexNS_9allocatorIS1_EEEC2B8ue170006ESt16initializer_listIS1_E, symObjAddr: 0x538, symBinAddr: 0x100004458, symSize: 0x120 }
  - { offsetInCU: 0x7B8C, offset: 0x7B8C, size: 0x8, addend: 0x0, symName: __ZNSt3__117__compressed_pairIP6VertexNS_9allocatorIS1_EEEC1B8ue170006IDnNS_18__default_init_tagEEEOT_OT0_, symObjAddr: 0x658, symBinAddr: 0x100004578, symSize: 0x3C }
  - { offsetInCU: 0x7BE2, offset: 0x7BE2, size: 0x8, addend: 0x0, symName: __ZNSt3__16vectorI6VertexNS_9allocatorIS1_EEE16__destroy_vectorC1B8ue170006ERS4_, symObjAddr: 0x6D4, symBinAddr: 0x1000045F4, symSize: 0x34 }
  - { offsetInCU: 0x7C19, offset: 0x7C19, size: 0x8, addend: 0x0, symName: __ZNKSt16initializer_listI6VertexE4sizeB8ue170006Ev, symObjAddr: 0x708, symBinAddr: 0x100004628, symSize: 0x18 }
  - { offsetInCU: 0x7C3D, offset: 0x7C3D, size: 0x8, addend: 0x0, symName: __ZNSt3__16vectorI6VertexNS_9allocatorIS1_EEE11__vallocateB8ue170006Em, symObjAddr: 0x720, symBinAddr: 0x100004640, symSize: 0xB4 }
  - { offsetInCU: 0x7C7F, offset: 0x7C7F, size: 0x8, addend: 0x0, symName: __ZNSt3__16vectorI6VertexNS_9allocatorIS1_EEE18__construct_at_endIPKS1_S7_EEvT_T0_m, symObjAddr: 0x7D4, symBinAddr: 0x1000046F4, symSize: 0x8C }
  - { offsetInCU: 0x7CF3, offset: 0x7CF3, size: 0x8, addend: 0x0, symName: __ZNKSt16initializer_listI6VertexE5beginB8ue170006Ev, symObjAddr: 0x860, symBinAddr: 0x100004780, symSize: 0x18 }
  - { offsetInCU: 0x7D17, offset: 0x7D17, size: 0x8, addend: 0x0, symName: __ZNKSt16initializer_listI6VertexE3endB8ue170006Ev, symObjAddr: 0x878, symBinAddr: 0x100004798, symSize: 0x28 }
  - { offsetInCU: 0x7D3B, offset: 0x7D3B, size: 0x8, addend: 0x0, symName: __ZNSt3__128__exception_guard_exceptionsINS_6vectorI6VertexNS_9allocatorIS2_EEE16__destroy_vectorEE10__completeB8ue170006Ev, symObjAddr: 0x8A0, symBinAddr: 0x1000047C0, symSize: 0x1C }
  - { offsetInCU: 0x7D5F, offset: 0x7D5F, size: 0x8, addend: 0x0, symName: __ZNSt3__128__exception_guard_exceptionsINS_6vectorI6VertexNS_9allocatorIS2_EEE16__destroy_vectorEED1B8ue170006Ev, symObjAddr: 0x8BC, symBinAddr: 0x1000047DC, symSize: 0x2C }
  - { offsetInCU: 0x7D87, offset: 0x7D87, size: 0x8, addend: 0x0, symName: __ZNSt3__117__compressed_pairIP6VertexNS_9allocatorIS1_EEEC2B8ue170006IDnNS_18__default_init_tagEEEOT_OT0_, symObjAddr: 0x8E8, symBinAddr: 0x100004808, symSize: 0x40 }
  - { offsetInCU: 0x7DDD, offset: 0x7DDD, size: 0x8, addend: 0x0, symName: __ZNSt3__122__compressed_pair_elemIP6VertexLi0ELb0EEC2B8ue170006IDnvEEOT_, symObjAddr: 0x928, symBinAddr: 0x100004848, symSize: 0x1C }
  - { offsetInCU: 0x7E1D, offset: 0x7E1D, size: 0x8, addend: 0x0, symName: __ZNSt3__122__compressed_pair_elemINS_9allocatorI6VertexEELi1ELb1EEC2B8ue170006ENS_18__default_init_tagE, symObjAddr: 0x944, symBinAddr: 0x100004864, symSize: 0x2C }
  - { offsetInCU: 0x7E4F, offset: 0x7E4F, size: 0x8, addend: 0x0, symName: __ZNSt3__19allocatorI6VertexEC2B8ue170006Ev, symObjAddr: 0x970, symBinAddr: 0x100004890, symSize: 0x2C }
  - { offsetInCU: 0x7E77, offset: 0x7E77, size: 0x8, addend: 0x0, symName: __ZNSt3__116__non_trivial_ifILb1ENS_9allocatorI6VertexEEEC2B8ue170006Ev, symObjAddr: 0x99C, symBinAddr: 0x1000048BC, symSize: 0x14 }
  - { offsetInCU: 0x7E9F, offset: 0x7E9F, size: 0x8, addend: 0x0, symName: __ZNSt3__128__exception_guard_exceptionsINS_6vectorI6VertexNS_9allocatorIS2_EEE16__destroy_vectorEEC1B8ue170006ES6_, symObjAddr: 0x9B0, symBinAddr: 0x1000048D0, symSize: 0x34 }
  - { offsetInCU: 0x7ED5, offset: 0x7ED5, size: 0x8, addend: 0x0, symName: __ZNSt3__128__exception_guard_exceptionsINS_6vectorI6VertexNS_9allocatorIS2_EEE16__destroy_vectorEEC2B8ue170006ES6_, symObjAddr: 0x9E4, symBinAddr: 0x100004904, symSize: 0x24 }
  - { offsetInCU: 0x7F0B, offset: 0x7F0B, size: 0x8, addend: 0x0, symName: __ZNSt3__16vectorI6VertexNS_9allocatorIS1_EEE16__destroy_vectorC2B8ue170006ERS4_, symObjAddr: 0xA08, symBinAddr: 0x100004928, symSize: 0x20 }
  - { offsetInCU: 0x7F42, offset: 0x7F42, size: 0x8, addend: 0x0, symName: __ZNKSt3__16vectorI6VertexNS_9allocatorIS1_EEE8max_sizeEv, symObjAddr: 0xA28, symBinAddr: 0x100004948, symSize: 0x60 }
  - { offsetInCU: 0x7F68, offset: 0x7F68, size: 0x8, addend: 0x0, symName: __ZNKSt3__16vectorI6VertexNS_9allocatorIS1_EEE20__throw_length_errorB8ue170006Ev, symObjAddr: 0xA88, symBinAddr: 0x1000049A8, symSize: 0x1C }
  - { offsetInCU: 0x7F8C, offset: 0x7F8C, size: 0x8, addend: 0x0, symName: __ZNSt3__16vectorI6VertexNS_9allocatorIS1_EEE7__allocB8ue170006Ev, symObjAddr: 0xAE4, symBinAddr: 0x100004A04, symSize: 0x28 }
  - { offsetInCU: 0x7FB0, offset: 0x7FB0, size: 0x8, addend: 0x0, symName: __ZNSt3__16vectorI6VertexNS_9allocatorIS1_EEE9__end_capB8ue170006Ev, symObjAddr: 0xB0C, symBinAddr: 0x100004A2C, symSize: 0x28 }
  - { offsetInCU: 0x7FD4, offset: 0x7FD4, size: 0x8, addend: 0x0, symName: __ZNKSt3__16vectorI6VertexNS_9allocatorIS1_EEE14__annotate_newB8ue170006Em, symObjAddr: 0xB34, symBinAddr: 0x100004A54, symSize: 0xC8 }
  - { offsetInCU: 0x8011, offset: 0x8011, size: 0x8, addend: 0x0, symName: __ZNSt3__116allocator_traitsINS_9allocatorI6VertexEEE8max_sizeB8ue170006IS3_vEEmRKS3_, symObjAddr: 0xC28, symBinAddr: 0x100004B48, symSize: 0x24 }
  - { offsetInCU: 0x803E, offset: 0x803E, size: 0x8, addend: 0x0, symName: __ZNKSt3__16vectorI6VertexNS_9allocatorIS1_EEE7__allocB8ue170006Ev, symObjAddr: 0xC4C, symBinAddr: 0x100004B6C, symSize: 0x28 }
  - { offsetInCU: 0x8062, offset: 0x8062, size: 0x8, addend: 0x0, symName: __ZNSt3__114numeric_limitsIlE3maxB8ue170006Ev, symObjAddr: 0xC74, symBinAddr: 0x100004B94, symSize: 0x14 }
  - { offsetInCU: 0x8089, offset: 0x8089, size: 0x8, addend: 0x0, symName: __ZNKSt3__16__lessIvvEclB8ue170006ImmEEbRKT_RKT0_, symObjAddr: 0xCE8, symBinAddr: 0x100004C08, symSize: 0x34 }
  - { offsetInCU: 0x80DB, offset: 0x80DB, size: 0x8, addend: 0x0, symName: __ZNKSt3__19allocatorI6VertexE8max_sizeB8ue170006Ev, symObjAddr: 0xD1C, symBinAddr: 0x100004C3C, symSize: 0x18 }
  - { offsetInCU: 0x80FF, offset: 0x80FF, size: 0x8, addend: 0x0, symName: __ZNKSt3__117__compressed_pairIP6VertexNS_9allocatorIS1_EEE6secondB8ue170006Ev, symObjAddr: 0xD34, symBinAddr: 0x100004C54, symSize: 0x24 }
  - { offsetInCU: 0x8123, offset: 0x8123, size: 0x8, addend: 0x0, symName: __ZNKSt3__122__compressed_pair_elemINS_9allocatorI6VertexEELi1ELb1EE5__getB8ue170006Ev, symObjAddr: 0xD58, symBinAddr: 0x100004C78, symSize: 0x14 }
  - { offsetInCU: 0x8148, offset: 0x8148, size: 0x8, addend: 0x0, symName: __ZNSt3__123__libcpp_numeric_limitsIlLb1EE3maxB8ue170006Ev, symObjAddr: 0xD6C, symBinAddr: 0x100004C8C, symSize: 0x8 }
  - { offsetInCU: 0x815A, offset: 0x815A, size: 0x8, addend: 0x0, symName: __ZNSt12length_errorC1B8ue170006EPKc, symObjAddr: 0xDD8, symBinAddr: 0x100004CF8, symSize: 0x34 }
  - { offsetInCU: 0x8190, offset: 0x8190, size: 0x8, addend: 0x0, symName: __ZNSt12length_errorC2B8ue170006EPKc, symObjAddr: 0xE0C, symBinAddr: 0x100004D2C, symSize: 0x4C }
  - { offsetInCU: 0x81C6, offset: 0x81C6, size: 0x8, addend: 0x0, symName: __ZNSt3__19allocatorI6VertexE8allocateB8ue170006Em, symObjAddr: 0xE58, symBinAddr: 0x100004D78, symSize: 0x5C }
  - { offsetInCU: 0x81F8, offset: 0x81F8, size: 0x8, addend: 0x0, symName: __ZNSt3__117__compressed_pairIP6VertexNS_9allocatorIS1_EEE6secondB8ue170006Ev, symObjAddr: 0xF34, symBinAddr: 0x100004E54, symSize: 0x24 }
  - { offsetInCU: 0x821C, offset: 0x821C, size: 0x8, addend: 0x0, symName: __ZNSt3__122__compressed_pair_elemINS_9allocatorI6VertexEELi1ELb1EE5__getB8ue170006Ev, symObjAddr: 0xF58, symBinAddr: 0x100004E78, symSize: 0x14 }
  - { offsetInCU: 0x8240, offset: 0x8240, size: 0x8, addend: 0x0, symName: __ZNSt3__117__compressed_pairIP6VertexNS_9allocatorIS1_EEE5firstB8ue170006Ev, symObjAddr: 0xF6C, symBinAddr: 0x100004E8C, symSize: 0x24 }
  - { offsetInCU: 0x8264, offset: 0x8264, size: 0x8, addend: 0x0, symName: __ZNSt3__122__compressed_pair_elemIP6VertexLi0ELb0EE5__getB8ue170006Ev, symObjAddr: 0xF90, symBinAddr: 0x100004EB0, symSize: 0x14 }
  - { offsetInCU: 0x8288, offset: 0x8288, size: 0x8, addend: 0x0, symName: __ZNKSt3__16vectorI6VertexNS_9allocatorIS1_EEE31__annotate_contiguous_containerB8ue170006EPKvS6_S6_S6_, symObjAddr: 0xFA4, symBinAddr: 0x100004EC4, symSize: 0x20 }
  - { offsetInCU: 0x82D8, offset: 0x82D8, size: 0x8, addend: 0x0, symName: __ZNKSt3__16vectorI6VertexNS_9allocatorIS1_EEE4dataB8ue170006Ev, symObjAddr: 0xFC4, symBinAddr: 0x100004EE4, symSize: 0x28 }
  - { offsetInCU: 0x82FC, offset: 0x82FC, size: 0x8, addend: 0x0, symName: __ZNKSt3__16vectorI6VertexNS_9allocatorIS1_EEE8capacityB8ue170006Ev, symObjAddr: 0xFEC, symBinAddr: 0x100004F0C, symSize: 0x40 }
  - { offsetInCU: 0x8320, offset: 0x8320, size: 0x8, addend: 0x0, symName: __ZNKSt3__16vectorI6VertexNS_9allocatorIS1_EEE9__end_capB8ue170006Ev, symObjAddr: 0x1040, symBinAddr: 0x100004F60, symSize: 0x28 }
  - { offsetInCU: 0x8344, offset: 0x8344, size: 0x8, addend: 0x0, symName: __ZNKSt3__117__compressed_pairIP6VertexNS_9allocatorIS1_EEE5firstB8ue170006Ev, symObjAddr: 0x1068, symBinAddr: 0x100004F88, symSize: 0x24 }
  - { offsetInCU: 0x8368, offset: 0x8368, size: 0x8, addend: 0x0, symName: __ZNKSt3__122__compressed_pair_elemIP6VertexLi0ELb0EE5__getB8ue170006Ev, symObjAddr: 0x108C, symBinAddr: 0x100004FAC, symSize: 0x14 }
  - { offsetInCU: 0x83A5, offset: 0x83A5, size: 0x8, addend: 0x0, symName: __ZNSt3__16vectorI6VertexNS_9allocatorIS1_EEE21_ConstructTransactionC1B8ue170006ERS4_m, symObjAddr: 0x10A0, symBinAddr: 0x100004FC0, symSize: 0x3C }
  - { offsetInCU: 0x83EB, offset: 0x83EB, size: 0x8, addend: 0x0, symName: __ZNSt3__16vectorI6VertexNS_9allocatorIS1_EEE21_ConstructTransactionD1B8ue170006Ev, symObjAddr: 0x115C, symBinAddr: 0x10000507C, symSize: 0x2C }
  - { offsetInCU: 0x8413, offset: 0x8413, size: 0x8, addend: 0x0, symName: __ZNSt3__16vectorI6VertexNS_9allocatorIS1_EEE21_ConstructTransactionC2B8ue170006ERS4_m, symObjAddr: 0x1188, symBinAddr: 0x1000050A8, symSize: 0x4C }
  - { offsetInCU: 0x8477, offset: 0x8477, size: 0x8, addend: 0x0, symName: __ZNSt3__14pairIPK6VertexS3_EC1B8ue170006IS3_S3_LPv0EEEOT_OT0_, symObjAddr: 0x1328, symBinAddr: 0x100005248, symSize: 0x3C }
  - { offsetInCU: 0x84D3, offset: 0x84D3, size: 0x8, addend: 0x0, symName: __ZNSt3__14pairIPK6VertexS3_EC2B8ue170006IS3_S3_LPv0EEEOT_OT0_, symObjAddr: 0x1364, symBinAddr: 0x100005284, symSize: 0x34 }
  - { offsetInCU: 0x852F, offset: 0x852F, size: 0x8, addend: 0x0, symName: __ZNSt3__118__unwrap_iter_implIPK6VertexLb1EE8__unwrapB8ue170006ES3_, symObjAddr: 0x1398, symBinAddr: 0x1000052B8, symSize: 0x24 }
  - { offsetInCU: 0x8574, offset: 0x8574, size: 0x8, addend: 0x0, symName: __ZNKSt3__114__copy_trivialclB8ue170006IK6VertexS2_Li0EEENS_4pairIPT_PT0_EES6_S6_S8_, symObjAddr: 0x154C, symBinAddr: 0x10000546C, symSize: 0x48 }
  - { offsetInCU: 0x85E4, offset: 0x85E4, size: 0x8, addend: 0x0, symName: __ZNSt3__14pairIPK6VertexPS1_EC1B8ue170006IRS3_S4_LPv0EEEOT_OT0_, symObjAddr: 0x1720, symBinAddr: 0x100005640, symSize: 0x3C }
  - { offsetInCU: 0x8640, offset: 0x8640, size: 0x8, addend: 0x0, symName: __ZNSt3__14pairIPK6VertexPS1_EC2B8ue170006IRS3_S4_LPv0EEEOT_OT0_, symObjAddr: 0x175C, symBinAddr: 0x10000567C, symSize: 0x34 }
  - { offsetInCU: 0x869C, offset: 0x869C, size: 0x8, addend: 0x0, symName: __ZNSt3__14pairIPK6VertexPS1_EC1B8ue170006IS3_S4_LPv0EEEOT_OT0_, symObjAddr: 0x1790, symBinAddr: 0x1000056B0, symSize: 0x3C }
  - { offsetInCU: 0x86F8, offset: 0x86F8, size: 0x8, addend: 0x0, symName: __ZNSt3__14pairIPK6VertexPS1_EC2B8ue170006IS3_S4_LPv0EEEOT_OT0_, symObjAddr: 0x17CC, symBinAddr: 0x1000056EC, symSize: 0x34 }
  - { offsetInCU: 0x8754, offset: 0x8754, size: 0x8, addend: 0x0, symName: __ZNSt3__118__unwrap_iter_implIPK6VertexLb1EE8__rewrapB8ue170006ES3_S3_, symObjAddr: 0x183C, symBinAddr: 0x10000575C, symSize: 0x58 }
  - { offsetInCU: 0x8784, offset: 0x8784, size: 0x8, addend: 0x0, symName: __ZNSt3__118__unwrap_iter_implIP6VertexLb1EE8__unwrapB8ue170006ES2_, symObjAddr: 0x1894, symBinAddr: 0x1000057B4, symSize: 0x24 }
  - { offsetInCU: 0x87A6, offset: 0x87A6, size: 0x8, addend: 0x0, symName: __ZNSt3__118__unwrap_iter_implIP6VertexLb1EE8__rewrapB8ue170006ES2_S2_, symObjAddr: 0x18B8, symBinAddr: 0x1000057D8, symSize: 0x58 }
  - { offsetInCU: 0x87D6, offset: 0x87D6, size: 0x8, addend: 0x0, symName: __ZNSt3__16vectorI6VertexNS_9allocatorIS1_EEE21_ConstructTransactionD2B8ue170006Ev, symObjAddr: 0x1910, symBinAddr: 0x100005830, symSize: 0x20 }
  - { offsetInCU: 0x87FE, offset: 0x87FE, size: 0x8, addend: 0x0, symName: __ZNSt3__128__exception_guard_exceptionsINS_6vectorI6VertexNS_9allocatorIS2_EEE16__destroy_vectorEED2B8ue170006Ev, symObjAddr: 0x1930, symBinAddr: 0x100005850, symSize: 0x50 }
  - { offsetInCU: 0x8826, offset: 0x8826, size: 0x8, addend: 0x0, symName: __ZNSt3__16vectorI6VertexNS_9allocatorIS1_EEE16__destroy_vectorclB8ue170006Ev, symObjAddr: 0x1980, symBinAddr: 0x1000058A0, symSize: 0x90 }
  - { offsetInCU: 0x884A, offset: 0x884A, size: 0x8, addend: 0x0, symName: __ZNSt3__16vectorI6VertexNS_9allocatorIS1_EEE7__clearB8ue170006Ev, symObjAddr: 0x1A10, symBinAddr: 0x100005930, symSize: 0x28 }
  - { offsetInCU: 0x886E, offset: 0x886E, size: 0x8, addend: 0x0, symName: __ZNKSt3__16vectorI6VertexNS_9allocatorIS1_EEE17__annotate_deleteB8ue170006Ev, symObjAddr: 0x1A38, symBinAddr: 0x100005958, symSize: 0xD4 }
  - { offsetInCU: 0x8892, offset: 0x8892, size: 0x8, addend: 0x0, symName: __ZNSt3__116allocator_traitsINS_9allocatorI6VertexEEE10deallocateB8ue170006ERS3_PS2_m, symObjAddr: 0x1B0C, symBinAddr: 0x100005A2C, symSize: 0x34 }
  - { offsetInCU: 0x88D3, offset: 0x88D3, size: 0x8, addend: 0x0, symName: __ZNSt3__16vectorI6VertexNS_9allocatorIS1_EEE22__base_destruct_at_endB8ue170006EPS1_, symObjAddr: 0x1B40, symBinAddr: 0x100005A60, symSize: 0x8C }
  - { offsetInCU: 0x8915, offset: 0x8915, size: 0x8, addend: 0x0, symName: __ZNSt3__116allocator_traitsINS_9allocatorI6VertexEEE7destroyB8ue170006IS2_vEEvRS3_PT_, symObjAddr: 0x1BCC, symBinAddr: 0x100005AEC, symSize: 0x2C }
  - { offsetInCU: 0x8951, offset: 0x8951, size: 0x8, addend: 0x0, symName: __ZNSt3__19allocatorI6VertexE7destroyB8ue170006EPS1_, symObjAddr: 0x1BF8, symBinAddr: 0x100005B18, symSize: 0x14 }
  - { offsetInCU: 0x8983, offset: 0x8983, size: 0x8, addend: 0x0, symName: __ZNKSt3__16vectorI6VertexNS_9allocatorIS1_EEE4sizeB8ue170006Ev, symObjAddr: 0x1C0C, symBinAddr: 0x100005B2C, symSize: 0x28 }
  - { offsetInCU: 0x89A7, offset: 0x89A7, size: 0x8, addend: 0x0, symName: __ZNSt3__19allocatorI6VertexE10deallocateB8ue170006EPS1_m, symObjAddr: 0x1C34, symBinAddr: 0x100005B54, symSize: 0x44 }
  - { offsetInCU: 0x89E7, offset: 0x89E7, size: 0x8, addend: 0x0, symName: __ZNSt3__16vectorI6VertexNS_9allocatorIS1_EEED2B8ue170006Ev, symObjAddr: 0x1CF4, symBinAddr: 0x100005C14, symSize: 0x40 }
  - { offsetInCU: 0x3A75, offset: 0xC4DE, size: 0x8, addend: 0x0, symName: __ZNSt3__17advanceB8ue170006IP6VertexllvEEvRT_T0_, symObjAddr: 0x10B8, symBinAddr: 0x1000065B4, symSize: 0x38 }
  - { offsetInCU: 0x3AE1, offset: 0xC54A, size: 0x8, addend: 0x0, symName: __ZNSt3__124__put_character_sequenceB8ue170006IcNS_11char_traitsIcEEEERNS_13basic_ostreamIT_T0_EES7_PKS4_m, symObjAddr: 0x1EF8, symBinAddr: 0x100006D34, symSize: 0x1EC }
  - { offsetInCU: 0x545F, offset: 0xDEC8, size: 0x8, addend: 0x0, symName: __ZNSt3__1neB8ue170006IP6VertexEEbRKNS_11__wrap_iterIT_EES7_, symObjAddr: 0x2CC, symBinAddr: 0x100005ECC, symSize: 0x34 }
  - { offsetInCU: 0x54A2, offset: 0xDF0B, size: 0x8, addend: 0x0, symName: __ZNSt3__1lsB8ue170006INS_11char_traitsIcEEEERNS_13basic_ostreamIcT_EES6_PKc, symObjAddr: 0x318, symBinAddr: 0x100005F18, symSize: 0x48 }
  - { offsetInCU: 0x54E8, offset: 0xDF51, size: 0x8, addend: 0x0, symName: __ZNSt3__14endlB8ue170006IcNS_11char_traitsIcEEEERNS_13basic_ostreamIT_T0_EES7_, symObjAddr: 0x3AC, symBinAddr: 0x100005FAC, symSize: 0x58 }
  - { offsetInCU: 0x5528, offset: 0xDF91, size: 0x8, addend: 0x0, symName: __ZNSt3__1eqB8ue170006IP6VertexEEbRKNS_11__wrap_iterIT_EES7_, symObjAddr: 0x404, symBinAddr: 0x100006004, symSize: 0x48 }
  - { offsetInCU: 0x556B, offset: 0xDFD4, size: 0x8, addend: 0x0, symName: __ZNSt3__18distanceB8ue170006IP6VertexEENS_15iterator_traitsIT_E15difference_typeES4_S4_, symObjAddr: 0xD00, symBinAddr: 0x1000062B0, symSize: 0x2C }
  - { offsetInCU: 0x55AE, offset: 0xE017, size: 0x8, addend: 0x0, symName: __ZNSt3__14nextB8ue170006IP6VertexEENS_9enable_ifIXsr29__has_input_iterator_categoryIT_EE5valueES4_E4typeES4_NS_15iterator_traitsIS4_E15difference_typeE, symObjAddr: 0xD2C, symBinAddr: 0x1000062DC, symSize: 0x34 }
  - { offsetInCU: 0x55F1, offset: 0xE05A, size: 0x8, addend: 0x0, symName: __ZNSt3__14copyB8ue170006IP6VertexS2_EET0_T_S4_S3_, symObjAddr: 0xD60, symBinAddr: 0x100006310, symSize: 0x40 }
  - { offsetInCU: 0x564B, offset: 0xE0B4, size: 0x8, addend: 0x0, symName: __ZNSt3__16__copyB8ue170006INS_17_ClassicAlgPolicyEP6VertexS3_S3_EENS_4pairIT0_T2_EES5_T1_S6_, symObjAddr: 0xE2C, symBinAddr: 0x1000063DC, symSize: 0x44 }
  - { offsetInCU: 0x56B7, offset: 0xE120, size: 0x8, addend: 0x0, symName: __ZNSt3__121__convert_to_integralB8ue170006El, symObjAddr: 0x10F0, symBinAddr: 0x1000065EC, symSize: 0x14 }
  - { offsetInCU: 0x56E3, offset: 0xE14C, size: 0x8, addend: 0x0, symName: __ZNSt3__19__advanceB8ue170006IP6VertexEEvRT_NS_15iterator_traitsIS3_E15difference_typeENS_26random_access_iterator_tagE, symObjAddr: 0x1104, symBinAddr: 0x100006600, symSize: 0x30 }
  - { offsetInCU: 0x572D, offset: 0xE196, size: 0x8, addend: 0x0, symName: __ZNSt3__130__uninitialized_allocator_copyB8ue170006INS_9allocatorI6VertexEEPS2_S4_S4_EET2_RT_T0_T1_S5_, symObjAddr: 0x1170, symBinAddr: 0x100006630, symSize: 0x80 }
  - { offsetInCU: 0x57CA, offset: 0xE233, size: 0x8, addend: 0x0, symName: __ZNSt3__114__unwrap_rangeB8ue170006IP6VertexS2_EENS_4pairIT0_S4_EET_S6_, symObjAddr: 0x1268, symBinAddr: 0x1000066B0, symSize: 0x60 }
  - { offsetInCU: 0x5816, offset: 0xE27F, size: 0x8, addend: 0x0, symName: __ZNSt3__135__uninitialized_allocator_copy_implB8ue170006INS_9allocatorI6VertexEES2_S2_S2_LPv0EEEPT2_RT_PT0_SA_S6_, symObjAddr: 0x12C8, symBinAddr: 0x100006710, symSize: 0x38 }
  - { offsetInCU: 0x5897, offset: 0xE300, size: 0x8, addend: 0x0, symName: __ZNSt3__19make_pairB8ue170006IP6VertexS2_EENS_4pairINS_18__unwrap_ref_decayIT_E4typeENS4_IT0_E4typeEEEOS5_OS8_, symObjAddr: 0x1360, symBinAddr: 0x100006748, symSize: 0x38 }
  - { offsetInCU: 0x59E9, offset: 0xE452, size: 0x8, addend: 0x0, symName: __ZNSt3__123__dispatch_copy_or_moveB8ue170006INS_17_ClassicAlgPolicyENS_11__copy_loopIS1_EENS_14__copy_trivialEP6VertexS6_S6_EENS_4pairIT2_T4_EES8_T3_S9_, symObjAddr: 0x14A4, symBinAddr: 0x1000067F0, symSize: 0x44 }
  - { offsetInCU: 0x5A67, offset: 0xE4D0, size: 0x8, addend: 0x0, symName: __ZNSt3__121__unwrap_and_dispatchB8ue170006INS_10__overloadINS_11__copy_loopINS_17_ClassicAlgPolicyEEENS_14__copy_trivialEEEP6VertexS8_S8_Li0EEENS_4pairIT0_T2_EESA_T1_SB_, symObjAddr: 0x14E8, symBinAddr: 0x100006834, symSize: 0xB4 }
  - { offsetInCU: 0x5B3B, offset: 0xE5A4, size: 0x8, addend: 0x0, symName: __ZNSt3__114__rewrap_rangeB8ue170006IP6VertexS2_EET_S3_T0_, symObjAddr: 0x15E4, symBinAddr: 0x100006930, symSize: 0x2C }
  - { offsetInCU: 0x5B87, offset: 0xE5F0, size: 0x8, addend: 0x0, symName: __ZNSt3__119__copy_trivial_implB8ue170006I6VertexS1_EENS_4pairIPT_PT0_EES4_S4_S6_, symObjAddr: 0x1610, symBinAddr: 0x10000695C, symSize: 0x88 }
  - { offsetInCU: 0x5BEF, offset: 0xE658, size: 0x8, addend: 0x0, symName: __ZNSt3__119__constexpr_memmoveB8ue170006I6VertexS1_Li0EEEPT_S3_PT0_NS_15__element_countE, symObjAddr: 0x1698, symBinAddr: 0x1000069E4, symSize: 0x68 }
  - { offsetInCU: 0x5C5D, offset: 0xE6C6, size: 0x8, addend: 0x0, symName: __ZNSt3__19make_pairB8ue170006IRP6VertexS2_EENS_4pairINS_18__unwrap_ref_decayIT_E4typeENS5_IT0_E4typeEEEOS6_OS9_, symObjAddr: 0x1700, symBinAddr: 0x100006A4C, symSize: 0x38 }
  - { offsetInCU: 0x5CAC, offset: 0xE715, size: 0x8, addend: 0x0, symName: __ZNSt3__13maxB8ue170006ImEERKT_S3_S3_, symObjAddr: 0x1DCC, symBinAddr: 0x100006C08, symSize: 0x2C }
  - { offsetInCU: 0x5CEF, offset: 0xE758, size: 0x8, addend: 0x0, symName: __ZNSt3__13maxB8ue170006ImNS_6__lessIvvEEEERKT_S5_S5_T0_, symObjAddr: 0x1DF8, symBinAddr: 0x100006C34, symSize: 0x54 }
  - { offsetInCU: 0x5D49, offset: 0xE7B2, size: 0x8, addend: 0x0, symName: __ZNSt3__110__distanceB8ue170006IP6VertexEENS_15iterator_traitsIT_E15difference_typeES4_S4_NS_26random_access_iterator_tagE, symObjAddr: 0x1E4C, symBinAddr: 0x100006C88, symSize: 0x28 }
  - { offsetInCU: 0x5D96, offset: 0xE7FF, size: 0x8, addend: 0x0, symName: __ZNSt3__116__pad_and_outputB8ue170006IcNS_11char_traitsIcEEEENS_19ostreambuf_iteratorIT_T0_EES6_PKS4_S8_S8_RNS_8ios_baseES4_, symObjAddr: 0x2134, symBinAddr: 0x100006F70, symSize: 0x240 }
  - { offsetInCU: 0x5E65, offset: 0xE8CE, size: 0x8, addend: 0x0, symName: __ZNSt3__112__to_addressB8ue170006IKcEEPT_S3_, symObjAddr: 0x269C, symBinAddr: 0x1000074D8, symSize: 0x14 }
  - { offsetInCU: 0x5ECD, offset: 0xE936, size: 0x8, addend: 0x0, symName: __ZNSt3__19use_facetB8ue170006INS_5ctypeIcEEEERKT_RKNS_6localeE, symObjAddr: 0x291C, symBinAddr: 0x100007758, symSize: 0x2C }
  - { offsetInCU: 0x63A5, offset: 0xEE0E, size: 0x8, addend: 0x0, symName: __ZNSt3__118__constexpr_strlenB8ue170006EPKc, symObjAddr: 0x29B4, symBinAddr: 0x1000077F0, symSize: 0x24 }
  - { offsetInCU: 0x8585, offset: 0x10FEE, size: 0x8, addend: 0x0, symName: __ZN4FaceC2ENSt3__16vectorI6VertexNS0_9allocatorIS2_EEEE, symObjAddr: 0x0, symBinAddr: 0x100005C54, symSize: 0x68 }
  - { offsetInCU: 0x85BE, offset: 0x11027, size: 0x8, addend: 0x0, symName: __ZNSt3__16vectorI6VertexNS_9allocatorIS1_EEEC1B8ue170006Ev, symObjAddr: 0x68, symBinAddr: 0x100005CBC, symSize: 0x2C }
  - { offsetInCU: 0x85E6, offset: 0x1104F, size: 0x8, addend: 0x0, symName: __ZNSt3__16vectorI6VertexNS_9allocatorIS1_EEEaSB8ue170006ERKS4_, symObjAddr: 0x94, symBinAddr: 0x100005CE8, symSize: 0x68 }
  - { offsetInCU: 0x861B, offset: 0x11084, size: 0x8, addend: 0x0, symName: __ZN4FaceC1ENSt3__16vectorI6VertexNS0_9allocatorIS2_EEEE, symObjAddr: 0x128, symBinAddr: 0x100005D50, symSize: 0x34 }
  - { offsetInCU: 0x8654, offset: 0x110BD, size: 0x8, addend: 0x0, symName: __ZN4Face5printEv, symObjAddr: 0x15C, symBinAddr: 0x100005D84, symSize: 0xE8 }
  - { offsetInCU: 0x86DC, offset: 0x11145, size: 0x8, addend: 0x0, symName: __ZNSt3__16vectorI6VertexNS_9allocatorIS1_EEE5beginB8ue170006Ev, symObjAddr: 0x26C, symBinAddr: 0x100005E6C, symSize: 0x30 }
  - { offsetInCU: 0x8702, offset: 0x1116B, size: 0x8, addend: 0x0, symName: __ZNSt3__16vectorI6VertexNS_9allocatorIS1_EEE3endB8ue170006Ev, symObjAddr: 0x29C, symBinAddr: 0x100005E9C, symSize: 0x30 }
  - { offsetInCU: 0x8728, offset: 0x11191, size: 0x8, addend: 0x0, symName: __ZNKSt3__111__wrap_iterIP6VertexEdeB8ue170006Ev, symObjAddr: 0x300, symBinAddr: 0x100005F00, symSize: 0x18 }
  - { offsetInCU: 0x874C, offset: 0x111B5, size: 0x8, addend: 0x0, symName: __ZNSt3__111__wrap_iterIP6VertexEppB8ue170006Ev, symObjAddr: 0x360, symBinAddr: 0x100005F60, symSize: 0x20 }
  - { offsetInCU: 0x8770, offset: 0x111D9, size: 0x8, addend: 0x0, symName: __ZNSt3__113basic_ostreamIcNS_11char_traitsIcEEElsB8ue170006EPFRS3_S4_E, symObjAddr: 0x380, symBinAddr: 0x100005F80, symSize: 0x2C }
  - { offsetInCU: 0x87A2, offset: 0x1120B, size: 0x8, addend: 0x0, symName: __ZNKSt3__111__wrap_iterIP6VertexE4baseB8ue170006Ev, symObjAddr: 0x44C, symBinAddr: 0x10000604C, symSize: 0x18 }
  - { offsetInCU: 0x87C6, offset: 0x1122F, size: 0x8, addend: 0x0, symName: __ZNSt3__16vectorI6VertexNS_9allocatorIS1_EEEC2B8ue170006Ev, symObjAddr: 0x464, symBinAddr: 0x100006064, symSize: 0x4C }
  - { offsetInCU: 0x87F3, offset: 0x1125C, size: 0x8, addend: 0x0, symName: __ZNSt3__16vectorI6VertexNS_9allocatorIS1_EEE19__copy_assign_allocB8ue170006ERKS4_, symObjAddr: 0xB00, symBinAddr: 0x1000060B0, symSize: 0x2C }
  - { offsetInCU: 0x8826, offset: 0x1128F, size: 0x8, addend: 0x0, symName: __ZNSt3__16vectorI6VertexNS_9allocatorIS1_EEE6assignIPS1_Li0EEEvT_S7_, symObjAddr: 0xB2C, symBinAddr: 0x1000060DC, symSize: 0x5C }
  - { offsetInCU: 0x8879, offset: 0x112E2, size: 0x8, addend: 0x0, symName: __ZNSt3__16vectorI6VertexNS_9allocatorIS1_EEE19__copy_assign_allocB8ue170006ERKS4_NS_17integral_constantIbLb0EEE, symObjAddr: 0xB88, symBinAddr: 0x100006138, symSize: 0x14 }
  - { offsetInCU: 0x88B3, offset: 0x1131C, size: 0x8, addend: 0x0, symName: __ZNSt3__16vectorI6VertexNS_9allocatorIS1_EEE18__assign_with_sizeB8ue170006IPS1_S6_EEvT_T0_l, symObjAddr: 0xB9C, symBinAddr: 0x10000614C, symSize: 0x164 }
  - { offsetInCU: 0x8963, offset: 0x113CC, size: 0x8, addend: 0x0, symName: __ZNSt3__16vectorI6VertexNS_9allocatorIS1_EEE18__construct_at_endIPS1_S6_EEvT_T0_m, symObjAddr: 0xDA0, symBinAddr: 0x100006350, symSize: 0x8C }
  - { offsetInCU: 0x89D7, offset: 0x11440, size: 0x8, addend: 0x0, symName: __ZNSt3__16vectorI6VertexNS_9allocatorIS1_EEE17__destruct_at_endB8ue170006EPS1_, symObjAddr: 0xE70, symBinAddr: 0x100006420, symSize: 0x4C }
  - { offsetInCU: 0x8A19, offset: 0x11482, size: 0x8, addend: 0x0, symName: __ZNSt3__16vectorI6VertexNS_9allocatorIS1_EEE13__vdeallocateEv, symObjAddr: 0xEBC, symBinAddr: 0x10000646C, symSize: 0x94 }
  - { offsetInCU: 0x8A3F, offset: 0x114A8, size: 0x8, addend: 0x0, symName: __ZNKSt3__16vectorI6VertexNS_9allocatorIS1_EEE11__recommendB8ue170006Em, symObjAddr: 0x1004, symBinAddr: 0x100006500, symSize: 0xB4 }
  - { offsetInCU: 0x8AC9, offset: 0x11532, size: 0x8, addend: 0x0, symName: __ZNSt3__14pairIP6VertexS2_EC1B8ue170006IS2_S2_LPv0EEEOT_OT0_, symObjAddr: 0x1398, symBinAddr: 0x100006780, symSize: 0x3C }
  - { offsetInCU: 0x8B25, offset: 0x1158E, size: 0x8, addend: 0x0, symName: __ZNSt3__14pairIP6VertexS2_EC2B8ue170006IS2_S2_LPv0EEEOT_OT0_, symObjAddr: 0x13D4, symBinAddr: 0x1000067BC, symSize: 0x34 }
  - { offsetInCU: 0x8B8B, offset: 0x115F4, size: 0x8, addend: 0x0, symName: __ZNKSt3__114__copy_trivialclB8ue170006I6VertexS2_Li0EEENS_4pairIPT_PT0_EES5_S5_S7_, symObjAddr: 0x159C, symBinAddr: 0x1000068E8, symSize: 0x48 }
  - { offsetInCU: 0x8BF1, offset: 0x1165A, size: 0x8, addend: 0x0, symName: __ZNSt3__14pairIP6VertexS2_EC1B8ue170006IRS2_S2_LPv0EEEOT_OT0_, symObjAddr: 0x1738, symBinAddr: 0x100006A84, symSize: 0x3C }
  - { offsetInCU: 0x8C4D, offset: 0x116B6, size: 0x8, addend: 0x0, symName: __ZNSt3__14pairIP6VertexS2_EC2B8ue170006IRS2_S2_LPv0EEEOT_OT0_, symObjAddr: 0x1774, symBinAddr: 0x100006AC0, symSize: 0x34 }
  - { offsetInCU: 0x8CA9, offset: 0x11712, size: 0x8, addend: 0x0, symName: __ZNKSt3__16vectorI6VertexNS_9allocatorIS1_EEE17__annotate_shrinkB8ue170006Em, symObjAddr: 0x17A8, symBinAddr: 0x100006AF4, symSize: 0xD0 }
  - { offsetInCU: 0x8CDC, offset: 0x11745, size: 0x8, addend: 0x0, symName: __ZNSt3__16vectorI6VertexNS_9allocatorIS1_EEE5clearB8ue170006Ev, symObjAddr: 0x1878, symBinAddr: 0x100006BC4, symSize: 0x44 }
  - { offsetInCU: 0x8D23, offset: 0x1178C, size: 0x8, addend: 0x0, symName: __ZNSt3__16vectorI6VertexNS_9allocatorIS1_EEE11__make_iterB8ue170006EPS1_, symObjAddr: 0x1E74, symBinAddr: 0x100006CB0, symSize: 0x30 }
  - { offsetInCU: 0x8D56, offset: 0x117BF, size: 0x8, addend: 0x0, symName: __ZNSt3__111__wrap_iterIP6VertexEC1B8ue170006ES2_, symObjAddr: 0x1EA4, symBinAddr: 0x100006CE0, symSize: 0x34 }
  - { offsetInCU: 0x8D8C, offset: 0x117F5, size: 0x8, addend: 0x0, symName: __ZNSt3__111__wrap_iterIP6VertexEC2B8ue170006ES2_, symObjAddr: 0x1ED8, symBinAddr: 0x100006D14, symSize: 0x20 }
  - { offsetInCU: 0x8DC2, offset: 0x1182B, size: 0x8, addend: 0x0, symName: __ZNSt3__111char_traitsIcE6lengthB8ue170006EPKc, symObjAddr: 0x20E4, symBinAddr: 0x100006F20, symSize: 0x34 }
  - { offsetInCU: 0x8E02, offset: 0x1186B, size: 0x8, addend: 0x0, symName: __ZNKSt3__113basic_ostreamIcNS_11char_traitsIcEEE6sentrycvbB8ue170006Ev, symObjAddr: 0x2118, symBinAddr: 0x100006F54, symSize: 0x1C }
  - { offsetInCU: 0x8E26, offset: 0x1188F, size: 0x8, addend: 0x0, symName: __ZNSt3__119ostreambuf_iteratorIcNS_11char_traitsIcEEEC1B8ue170006ERNS_13basic_ostreamIcS2_EE, symObjAddr: 0x2374, symBinAddr: 0x1000071B0, symSize: 0x34 }
  - { offsetInCU: 0x8E5C, offset: 0x118C5, size: 0x8, addend: 0x0, symName: __ZNKSt3__18ios_base5flagsB8ue170006Ev, symObjAddr: 0x23A8, symBinAddr: 0x1000071E4, symSize: 0x18 }
  - { offsetInCU: 0x8E83, offset: 0x118EC, size: 0x8, addend: 0x0, symName: __ZNKSt3__19basic_iosIcNS_11char_traitsIcEEE4fillB8ue170006Ev, symObjAddr: 0x23C0, symBinAddr: 0x1000071FC, symSize: 0x64 }
  - { offsetInCU: 0x8EA9, offset: 0x11912, size: 0x8, addend: 0x0, symName: __ZNKSt3__119ostreambuf_iteratorIcNS_11char_traitsIcEEE6failedB8ue170006Ev, symObjAddr: 0x2424, symBinAddr: 0x100007260, symSize: 0x24 }
  - { offsetInCU: 0x8ECD, offset: 0x11936, size: 0x8, addend: 0x0, symName: __ZNSt3__19basic_iosIcNS_11char_traitsIcEEE8setstateB8ue170006Ej, symObjAddr: 0x2448, symBinAddr: 0x100007284, symSize: 0x2C }
  - { offsetInCU: 0x8F00, offset: 0x11969, size: 0x8, addend: 0x0, symName: __ZNKSt3__18ios_base5widthB8ue170006Ev, symObjAddr: 0x2474, symBinAddr: 0x1000072B0, symSize: 0x18 }
  - { offsetInCU: 0x8F27, offset: 0x11990, size: 0x8, addend: 0x0, symName: __ZNSt3__115basic_streambufIcNS_11char_traitsIcEEE5sputnB8ue170006EPKcl, symObjAddr: 0x248C, symBinAddr: 0x1000072C8, symSize: 0x3C }
  - { offsetInCU: 0x8F67, offset: 0x119D0, size: 0x8, addend: 0x0, symName: __ZNSt3__112basic_stringIcNS_11char_traitsIcEENS_9allocatorIcEEEC1B8ue170006Emc, symObjAddr: 0x24C8, symBinAddr: 0x100007304, symSize: 0x3C }
  - { offsetInCU: 0x8FAD, offset: 0x11A16, size: 0x8, addend: 0x0, symName: __ZNKSt3__112basic_stringIcNS_11char_traitsIcEENS_9allocatorIcEEE4dataB8ue170006Ev, symObjAddr: 0x2504, symBinAddr: 0x100007340, symSize: 0x28 }
  - { offsetInCU: 0x8FD1, offset: 0x11A3A, size: 0x8, addend: 0x0, symName: __ZNSt3__18ios_base5widthB8ue170006El, symObjAddr: 0x252C, symBinAddr: 0x100007368, symSize: 0x2C }
  - { offsetInCU: 0x9016, offset: 0x11A7F, size: 0x8, addend: 0x0, symName: __ZNSt3__112basic_stringIcNS_11char_traitsIcEENS_9allocatorIcEEEC2B8ue170006Emc, symObjAddr: 0x2558, symBinAddr: 0x100007394, symSize: 0x4C }
  - { offsetInCU: 0x905C, offset: 0x11AC5, size: 0x8, addend: 0x0, symName: __ZNSt3__117__compressed_pairINS_12basic_stringIcNS_11char_traitsIcEENS_9allocatorIcEEE5__repES5_EC1B8ue170006INS_18__default_init_tagESA_EEOT_OT0_, symObjAddr: 0x25A4, symBinAddr: 0x1000073E0, symSize: 0x3C }
  - { offsetInCU: 0x90B2, offset: 0x11B1B, size: 0x8, addend: 0x0, symName: __ZNSt3__117__compressed_pairINS_12basic_stringIcNS_11char_traitsIcEENS_9allocatorIcEEE5__repES5_EC2B8ue170006INS_18__default_init_tagESA_EEOT_OT0_, symObjAddr: 0x25E0, symBinAddr: 0x10000741C, symSize: 0x3C }
  - { offsetInCU: 0x9108, offset: 0x11B71, size: 0x8, addend: 0x0, symName: __ZNSt3__122__compressed_pair_elemINS_12basic_stringIcNS_11char_traitsIcEENS_9allocatorIcEEE5__repELi0ELb0EEC2B8ue170006ENS_18__default_init_tagE, symObjAddr: 0x261C, symBinAddr: 0x100007458, symSize: 0x14 }
  - { offsetInCU: 0x913A, offset: 0x11BA3, size: 0x8, addend: 0x0, symName: __ZNSt3__122__compressed_pair_elemINS_9allocatorIcEELi1ELb1EEC2B8ue170006ENS_18__default_init_tagE, symObjAddr: 0x2630, symBinAddr: 0x10000746C, symSize: 0x2C }
  - { offsetInCU: 0x916C, offset: 0x11BD5, size: 0x8, addend: 0x0, symName: __ZNSt3__19allocatorIcEC2B8ue170006Ev, symObjAddr: 0x265C, symBinAddr: 0x100007498, symSize: 0x2C }
  - { offsetInCU: 0x9194, offset: 0x11BFD, size: 0x8, addend: 0x0, symName: __ZNSt3__116__non_trivial_ifILb1ENS_9allocatorIcEEEC2B8ue170006Ev, symObjAddr: 0x2688, symBinAddr: 0x1000074C4, symSize: 0x14 }
  - { offsetInCU: 0x91BC, offset: 0x11C25, size: 0x8, addend: 0x0, symName: __ZNKSt3__112basic_stringIcNS_11char_traitsIcEENS_9allocatorIcEEE13__get_pointerB8ue170006Ev, symObjAddr: 0x26B0, symBinAddr: 0x1000074EC, symSize: 0x54 }
  - { offsetInCU: 0x91E0, offset: 0x11C49, size: 0x8, addend: 0x0, symName: __ZNKSt3__112basic_stringIcNS_11char_traitsIcEENS_9allocatorIcEEE9__is_longB8ue170006Ev, symObjAddr: 0x2704, symBinAddr: 0x100007540, symSize: 0x38 }
  - { offsetInCU: 0x9204, offset: 0x11C6D, size: 0x8, addend: 0x0, symName: __ZNKSt3__112basic_stringIcNS_11char_traitsIcEENS_9allocatorIcEEE18__get_long_pointerB8ue170006Ev, symObjAddr: 0x273C, symBinAddr: 0x100007578, symSize: 0x28 }
  - { offsetInCU: 0x9228, offset: 0x11C91, size: 0x8, addend: 0x0, symName: __ZNKSt3__112basic_stringIcNS_11char_traitsIcEENS_9allocatorIcEEE19__get_short_pointerB8ue170006Ev, symObjAddr: 0x2764, symBinAddr: 0x1000075A0, symSize: 0x28 }
  - { offsetInCU: 0x924C, offset: 0x11CB5, size: 0x8, addend: 0x0, symName: __ZNKSt3__117__compressed_pairINS_12basic_stringIcNS_11char_traitsIcEENS_9allocatorIcEEE5__repES5_E5firstB8ue170006Ev, symObjAddr: 0x278C, symBinAddr: 0x1000075C8, symSize: 0x24 }
  - { offsetInCU: 0x9270, offset: 0x11CD9, size: 0x8, addend: 0x0, symName: __ZNKSt3__122__compressed_pair_elemINS_12basic_stringIcNS_11char_traitsIcEENS_9allocatorIcEEE5__repELi0ELb0EE5__getB8ue170006Ev, symObjAddr: 0x27B0, symBinAddr: 0x1000075EC, symSize: 0x14 }
  - { offsetInCU: 0x9294, offset: 0x11CFD, size: 0x8, addend: 0x0, symName: __ZNSt3__114pointer_traitsIPKcE10pointer_toB8ue170006ERS1_, symObjAddr: 0x27C4, symBinAddr: 0x100007600, symSize: 0x14 }
  - { offsetInCU: 0x92B7, offset: 0x11D20, size: 0x8, addend: 0x0, symName: __ZNSt3__119ostreambuf_iteratorIcNS_11char_traitsIcEEEC2B8ue170006ERNS_13basic_ostreamIcS2_EE, symObjAddr: 0x27D8, symBinAddr: 0x100007614, symSize: 0x54 }
  - { offsetInCU: 0x92ED, offset: 0x11D56, size: 0x8, addend: 0x0, symName: __ZNKSt3__19basic_iosIcNS_11char_traitsIcEEE5rdbufB8ue170006Ev, symObjAddr: 0x282C, symBinAddr: 0x100007668, symSize: 0x24 }
  - { offsetInCU: 0x9313, offset: 0x11D7C, size: 0x8, addend: 0x0, symName: __ZNKSt3__18ios_base5rdbufB8ue170006Ev, symObjAddr: 0x2850, symBinAddr: 0x10000768C, symSize: 0x18 }
  - { offsetInCU: 0x9337, offset: 0x11DA0, size: 0x8, addend: 0x0, symName: __ZNSt3__111char_traitsIcE11eq_int_typeB8ue170006Eii, symObjAddr: 0x2868, symBinAddr: 0x1000076A4, symSize: 0x28 }
  - { offsetInCU: 0x936A, offset: 0x11DD3, size: 0x8, addend: 0x0, symName: __ZNSt3__111char_traitsIcE3eofB8ue170006Ev, symObjAddr: 0x2890, symBinAddr: 0x1000076CC, symSize: 0x8 }
  - { offsetInCU: 0x937D, offset: 0x11DE6, size: 0x8, addend: 0x0, symName: __ZNKSt3__19basic_iosIcNS_11char_traitsIcEEE5widenB8ue170006Ec, symObjAddr: 0x2898, symBinAddr: 0x1000076D4, symSize: 0x84 }
  - { offsetInCU: 0x93E4, offset: 0x11E4D, size: 0x8, addend: 0x0, symName: __ZNKSt3__15ctypeIcE5widenB8ue170006Ec, symObjAddr: 0x2948, symBinAddr: 0x100007784, symSize: 0x38 }
  - { offsetInCU: 0x9417, offset: 0x11E80, size: 0x8, addend: 0x0, symName: __ZNSt3__18ios_base8setstateB8ue170006Ej, symObjAddr: 0x2980, symBinAddr: 0x1000077BC, symSize: 0x34 }
  - { offsetInCU: 0x28FF, offset: 0x14830, size: 0x8, addend: 0x0, symName: __ZN6VertexC2Efff, symObjAddr: 0x0, symBinAddr: 0x100007814, symSize: 0x38 }
  - { offsetInCU: 0x2954, offset: 0x14885, size: 0x8, addend: 0x0, symName: __ZN6VertexC1Efff, symObjAddr: 0x38, symBinAddr: 0x10000784C, symSize: 0x44 }
  - { offsetInCU: 0x29A8, offset: 0x148D9, size: 0x8, addend: 0x0, symName: __ZN6Vertex5printEv, symObjAddr: 0x7C, symBinAddr: 0x100007890, symSize: 0x80 }
...
